target datalayout = "e-m:e-p270:32:32-p271:32:32-p272:64:64-i64:64-i128:128-f80:128-n8:16:32:64-S128"
target triple = "x86_64-pc-linux-gnu"

%"class.Ipopt::Matrix" = type <{ %"class.Ipopt::TaggedObject", %"class.Ipopt::SmartPtr", i32, i8, [3 x i8] }>
%"class.Ipopt::TaggedObject" = type { %"class.Ipopt::ReferencedObject.base", %"class.Ipopt::Subject", i32, i32 }
%"class.Ipopt::ReferencedObject.base" = type <{ ptr, i32 }>
%"class.Ipopt::Subject" = type { ptr, %"class.std::vector" }
%"class.std::vector" = type { %"struct.std::_Vector_base" }
%"struct.std::_Vector_base" = type { %"struct.std::_Vector_base<Ipopt::Observer *, std::allocator<Ipopt::Observer *>>::_Vector_impl" }
%"struct.std::_Vector_base<Ipopt::Observer *, std::allocator<Ipopt::Observer *>>::_Vector_impl" = type { %"struct.std::_Vector_base<Ipopt::Observer *, std::allocator<Ipopt::Observer *>>::_Vector_impl_data" }
%"struct.std::_Vector_base<Ipopt::Observer *, std::allocator<Ipopt::Observer *>>::_Vector_impl_data" = type { ptr, ptr, ptr }
%"class.Ipopt::SmartPtr" = type { ptr }
%"class.Ipopt::DenseGenMatrix" = type { %"class.Ipopt::Matrix.base", ptr, ptr, i8, i32, ptr }
%"class.Ipopt::Matrix.base" = type <{ %"class.Ipopt::TaggedObject", %"class.Ipopt::SmartPtr", i32, i8 }>
%"class.Ipopt::MatrixSpace" = type { %"class.Ipopt::ReferencedObject.base", i32, i32, [4 x i8] }

; Function Attrs: mustprogress nounwind uwtable
define linkonce_odr noundef i32 @_ZNK5Ipopt11MatrixSpace5NRowsEv(ptr noundef nonnull align 8 dereferenceable(20) %0) #0 comdat align 2 {
  %2 = alloca ptr, align 8
  store ptr %0, ptr %2, align 8, !tbaa !37
  %3 = load ptr, ptr %2, align 8
  %4 = getelementptr inbounds nuw %"class.Ipopt::MatrixSpace", ptr %3, i32 0, i32 1
  %5 = load i32, ptr %4, align 4, !tbaa !102
  ret i32 %5
}

; Function Attrs: mustprogress nounwind uwtable
define linkonce_odr noundef i32 @_ZNK5Ipopt11MatrixSpace5NColsEv(ptr noundef nonnull align 8 dereferenceable(20) %0) #0 comdat align 2 {
  %2 = alloca ptr, align 8
  store ptr %0, ptr %2, align 8, !tbaa !37
  %3 = load ptr, ptr %2, align 8
  %4 = getelementptr inbounds nuw %"class.Ipopt::MatrixSpace", ptr %3, i32 0, i32 2
  %5 = load i32, ptr %4, align 8, !tbaa !104
  ret i32 %5
}

; Function Attrs: mustprogress nounwind uwtable
define linkonce_odr noundef ptr @_ZNK5Ipopt8SmartPtrIKNS_11MatrixSpaceEEptEv(ptr noundef nonnull align 8 dereferenceable(8) %0) #0 comdat align 2 {
  %2 = alloca ptr, align 8
  store ptr %0, ptr %2, align 8, !tbaa !107
  %3 = load ptr, ptr %2, align 8
  %4 = getelementptr inbounds nuw %"class.Ipopt::SmartPtr", ptr %3, i32 0, i32 0
  %5 = load ptr, ptr %4, align 8, !tbaa !109
  ret ptr %5
}

; Function Attrs: inlinehint mustprogress uwtable
define linkonce_odr noundef i32 @_ZNK5Ipopt6Matrix5NRowsEv(ptr noundef nonnull align 8 dereferenceable(69) %0) #3 comdat align 2 {
  %2 = alloca ptr, align 8
  store ptr %0, ptr %2, align 8, !tbaa !3
  %3 = load ptr, ptr %2, align 8
  %4 = getelementptr inbounds nuw %"class.Ipopt::Matrix", ptr %3, i32 0, i32 1
  %5 = call noundef ptr @_ZNK5Ipopt8SmartPtrIKNS_11MatrixSpaceEEptEv(ptr noundef nonnull align 8 dereferenceable(8) %4)
  %6 = call noundef i32 @_ZNK5Ipopt11MatrixSpace5NRowsEv(ptr noundef nonnull align 8 dereferenceable(20) %5)
  ret i32 %6
}

; Function Attrs: inlinehint mustprogress uwtable
define linkonce_odr noundef i32 @_ZNK5Ipopt6Matrix5NColsEv(ptr noundef nonnull align 8 dereferenceable(69) %0) #3 comdat align 2 {
  %2 = alloca ptr, align 8
  store ptr %0, ptr %2, align 8, !tbaa !3
  %3 = load ptr, ptr %2, align 8
  %4 = getelementptr inbounds nuw %"class.Ipopt::Matrix", ptr %3, i32 0, i32 1
  %5 = call noundef ptr @_ZNK5Ipopt8SmartPtrIKNS_11MatrixSpaceEEptEv(ptr noundef nonnull align 8 dereferenceable(8) %4)
  %6 = call noundef i32 @_ZNK5Ipopt11MatrixSpace5NColsEv(ptr noundef nonnull align 8 dereferenceable(20) %5)
  ret i32 %6
}

; Function Attrs: mustprogress uwtable
define void @_ZN5Ipopt14DenseGenMatrix12FillIdentityEd(ptr noundef nonnull align 8 dereferenceable(104) %0, double noundef %1) #2 align 2 {
  %3 = alloca ptr, align 8
  %4 = alloca double, align 8
  %5 = alloca double, align 8
  %6 = alloca i32, align 4
  store ptr %0, ptr %3, align 8, !tbaa !10
  store double %1, ptr %4, align 8, !tbaa !43
  %7 = load ptr, ptr %3, align 8
  call void @llvm.lifetime.start.p0(i64 8, ptr %5) #16
  store double 0.000000e+00, ptr %5, align 8, !tbaa !43
  %8 = call noundef i32 @_ZNK5Ipopt6Matrix5NColsEv(ptr noundef nonnull align 8 dereferenceable(69) %7)
  %9 = call noundef i32 @_ZNK5Ipopt6Matrix5NRowsEv(ptr noundef nonnull align 8 dereferenceable(69) %7)
  %10 = mul nsw i32 %8, %9
  %11 = getelementptr inbounds nuw %"class.Ipopt::DenseGenMatrix", ptr %7, i32 0, i32 2
  %12 = load ptr, ptr %11, align 8, !tbaa !33
  call void @_ZN5Ipopt10IpBlasCopyEiPKdiPdi(i32 noundef %10, ptr noundef %5, i32 noundef 0, ptr noundef %12, i32 noundef 1)
  %13 = load double, ptr %4, align 8, !tbaa !43
  %14 = fcmp une double %13, 0.000000e+00
  br i1 %14, label %15, label %36

15:                                               ; preds = %2
  call void @llvm.lifetime.start.p0(i64 4, ptr %6) #16
  store i32 0, ptr %6, align 4, !tbaa !42
  br label %16

16:                                               ; preds = %32, %15
  %17 = load i32, ptr %6, align 4, !tbaa !42
  %18 = call noundef i32 @_ZNK5Ipopt6Matrix5NRowsEv(ptr noundef nonnull align 8 dereferenceable(69) %7)
  %19 = icmp slt i32 %17, %18
  br i1 %19, label %21, label %20

20:                                               ; preds = %16
  call void @llvm.lifetime.end.p0(i64 4, ptr %6) #16
  br label %35

21:                                               ; preds = %16
  %22 = load double, ptr %4, align 8, !tbaa !43
  %23 = getelementptr inbounds nuw %"class.Ipopt::DenseGenMatrix", ptr %7, i32 0, i32 2
  %24 = load ptr, ptr %23, align 8, !tbaa !33
  %25 = load i32, ptr %6, align 4, !tbaa !42
  %26 = load i32, ptr %6, align 4, !tbaa !42
  %27 = call noundef i32 @_ZNK5Ipopt6Matrix5NRowsEv(ptr noundef nonnull align 8 dereferenceable(69) %7)
  %28 = mul nsw i32 %26, %27
  %29 = add nsw i32 %25, %28
  %30 = sext i32 %29 to i64
  %31 = getelementptr inbounds double, ptr %24, i64 %30
  store double %22, ptr %31, align 8, !tbaa !43
  br label %32

32:                                               ; preds = %21
  %33 = load i32, ptr %6, align 4, !tbaa !42
  %34 = add nsw i32 %33, 1
  store i32 %34, ptr %6, align 4, !tbaa !42
  br label %16, !llvm.loop !55

35:                                               ; preds = %20
  br label %36

36:                                               ; preds = %35, %2
  call void @_ZN5Ipopt12TaggedObject13ObjectChangedEv(ptr noundef nonnull align 8 dereferenceable(56) %7)
  %37 = getelementptr inbounds nuw %"class.Ipopt::DenseGenMatrix", ptr %7, i32 0, i32 3
  store i8 1, ptr %37, align 8, !tbaa !34
  call void @llvm.lifetime.end.p0(i64 8, ptr %5) #16
  ret void
}