; Function Attrs: mustprogress uwtable
define void @_ZN5Ipopt14DenseGenMatrix12FillIdentityEd(ptr noundef nonnull align 8 dereferenceable(104) %0, double noundef %1) local_unnamed_addr #2 align 2 {
  %3 = alloca double, align 8
  call void @llvm.lifetime.start.p0(i64 8, ptr nonnull %3) #20
  store double 0.000000e+00, ptr %3, align 8, !tbaa !47
  %4 = getelementptr inbounds nuw i8, ptr %0, i64 56
  %5 = load ptr, ptr %4, align 8, !tbaa !6
  %6 = getelementptr inbounds nuw i8, ptr %5, i64 16
  %7 = load i32, ptr %6, align 8, !tbaa !31
  %8 = getelementptr inbounds nuw i8, ptr %5, i64 12
  %9 = load i32, ptr %8, align 4, !tbaa !33
  %10 = mul nsw i32 %9, %7
  %11 = getelementptr inbounds nuw i8, ptr %0, i64 80
  %12 = load ptr, ptr %11, align 8, !tbaa !34
  call void @_ZN5Ipopt10IpBlasCopyEiPKdiPdi(i32 noundef %10, ptr noundef nonnull %3, i32 noundef 0, ptr noundef %12, i32 noundef 1)
  %13 = fcmp une double %1, 0.000000e+00
  br i1 %13, label %.preheader, label %.loopexit

.preheader:                                       ; preds = %2
  %14 = load ptr, ptr %4, align 8, !tbaa !6
  %15 = getelementptr inbounds nuw i8, ptr %14, i64 12
  %16 = load i32, ptr %15, align 4, !tbaa !33
  %17 = icmp sgt i32 %16, 0
  br i1 %17, label %.lr.ph, label %.loopexit

.lr.ph:                                           ; preds = %.preheader
  %18 = load ptr, ptr %11, align 8, !tbaa !34
  %19 = add nuw i32 %16, 1
  %wide.trip.count = zext nneg i32 %16 to i64
  br label %20

20:                                               ; preds = %.lr.ph, %20
  %indvars.iv = phi i64 [ 0, %.lr.ph ], [ %indvars.iv.next, %20 ]
  %21 = trunc nuw nsw i64 %indvars.iv to i32
  %22 = mul i32 %19, %21
  %23 = sext i32 %22 to i64
  %24 = getelementptr inbounds double, ptr %18, i64 %23
  store double %1, ptr %24, align 8, !tbaa !47
  %indvars.iv.next = add nuw nsw i64 %indvars.iv, 1
  %exitcond.not = icmp eq i64 %indvars.iv.next, %wide.trip.count
  br i1 %exitcond.not, label %.loopexit, label %20, !llvm.loop !50

.loopexit:                                        ; preds = %20, %.preheader, %2
  call void @_ZN5Ipopt12TaggedObject13ObjectChangedEv(ptr noundef nonnull align 8 dereferenceable(56) %0)
  %25 = getelementptr inbounds nuw i8, ptr %0, i64 88
  store i8 1, ptr %25, align 8, !tbaa !35
  call void @llvm.lifetime.end.p0(i64 8, ptr nonnull %3) #20
  ret void
}